target datalayout = "e-m:e-p270:32:32-p271:32:32-p272:64:64-i64:64-i128:128-f80:128-n8:16:32:64-S128"
target triple = "x86_64-pc-linux-gnu"

%struct.strbuf = type { i64, i64, ptr }
%struct.ref_namespace_info = type { ptr, i32, i8 }
%struct.git_hash_algo = type { ptr, i32, i64, i64, i64, ptr, ptr, ptr, ptr, ptr, ptr, ptr, ptr, ptr }
%struct.object_id = type { [32 x i8], i32 }
%struct.repository = type { ptr, ptr, ptr, ptr, ptr, %struct.strmap, %struct.strmap, %struct.repo_path_cache, ptr, ptr, ptr, ptr, %struct.repo_settings, ptr, ptr, ptr, ptr, ptr, ptr, i32, i32, i32, ptr, ptr, i32, i32, i8 }
%struct.strmap = type { %struct.hashmap, ptr, i8 }
%struct.hashmap = type { ptr, ptr, ptr, i32, i32, i32, i32, i8 }
%struct.repo_path_cache = type { ptr, ptr, ptr, ptr, ptr, ptr, ptr }
%struct.repo_settings = type { i32, i32, i32, i32, i32, i32, i32, i32, i32, i32, i32, i32, ptr, i32, i32, i32, i32, i32, i32, i32, i64, i64, i64 }

@the_repository = external global ptr, align 8
@.str.33 = private unnamed_addr constant [1 x i8] zeroinitializer, align 1
@git_gettext_enabled = external global i32, align 4
@strbuf_slopbuf = external global [0 x i8], align 1
@ref_namespace = external global [9 x %struct.ref_namespace_info], align 16
@.str.36 = private unnamed_addr constant [11 x i8] c"./strbuf.h\00", align 1
@.str.37 = private unnamed_addr constant [30 x i8] c"strbuf_setlen() beyond buffer\00", align 1
@.str.41 = private unnamed_addr constant [5 x i8] c"%s%s\00", align 1
@.str.42 = private unnamed_addr constant [29 x i8] c"'%s' is not a valid ref name\00", align 1
@.str.43 = private unnamed_addr constant [32 x i8] c"replace ref '%s' already exists\00", align 1
@hash_algos = external constant [3 x %struct.git_hash_algo], align 16

; Function Attrs: inlinehint nounwind uwtable
define internal i32 @hash_algo_by_ptr(ptr noundef %0) #4 {
  %2 = alloca i32, align 4
  %3 = alloca ptr, align 8
  %4 = alloca i64, align 8
  %5 = alloca ptr, align 8
  %6 = alloca i32, align 4
  store ptr %0, ptr %3, align 8, !tbaa !76
  call void @llvm.lifetime.start.p0(i64 8, ptr %4) #10
  store i64 0, ptr %4, align 8, !tbaa !35
  br label %7

7:                                                ; preds = %23, %1
  %8 = load i64, ptr %4, align 8, !tbaa !35
  %9 = icmp ult i64 %8, 3
  br i1 %9, label %10, label %26

10:                                               ; preds = %7
  call void @llvm.lifetime.start.p0(i64 8, ptr %5) #10
  %11 = load i64, ptr %4, align 8, !tbaa !35
  %12 = getelementptr inbounds nuw [3 x %struct.git_hash_algo], ptr @hash_algos, i64 0, i64 %11
  store ptr %12, ptr %5, align 8, !tbaa !76
  %13 = load ptr, ptr %3, align 8, !tbaa !76
  %14 = load ptr, ptr %5, align 8, !tbaa !76
  %15 = icmp eq ptr %13, %14
  br i1 %15, label %16, label %19

16:                                               ; preds = %10
  %17 = load i64, ptr %4, align 8, !tbaa !35
  %18 = trunc i64 %17 to i32
  store i32 %18, ptr %2, align 4
  store i32 1, ptr %6, align 4
  br label %20

19:                                               ; preds = %10
  store i32 0, ptr %6, align 4
  br label %20

20:                                               ; preds = %19, %16
  call void @llvm.lifetime.end.p0(i64 8, ptr %5) #10
  %21 = load i32, ptr %6, align 4
  switch i32 %21, label %27 [
    i32 0, label %22
  ]

22:                                               ; preds = %20
  br label %23

23:                                               ; preds = %22
  %24 = load i64, ptr %4, align 8, !tbaa !35
  %25 = add i64 %24, 1
  store i64 %25, ptr %4, align 8, !tbaa !35
  br label %7, !llvm.loop !79

26:                                               ; preds = %7
  store i32 0, ptr %2, align 4
  store i32 1, ptr %6, align 4
  br label %27

27:                                               ; preds = %26, %20
  call void @llvm.lifetime.end.p0(i64 8, ptr %4) #10
  %28 = load i32, ptr %2, align 4
  ret i32 %28
}

; Function Attrs: inlinehint nounwind uwtable
define internal void @oidclr(ptr noundef %0, ptr noundef %1) #4 {
  %3 = alloca ptr, align 8
  %4 = alloca ptr, align 8
  store ptr %0, ptr %3, align 8, !tbaa !39
  store ptr %1, ptr %4, align 8, !tbaa !76
  %5 = load ptr, ptr %3, align 8, !tbaa !39
  %6 = getelementptr inbounds nuw %struct.object_id, ptr %5, i32 0, i32 0
  %7 = getelementptr inbounds [32 x i8], ptr %6, i64 0, i64 0
  call void @llvm.memset.p0.i64(ptr align 4 %7, i8 0, i64 32, i1 false)
  %8 = load ptr, ptr %4, align 8, !tbaa !76
  %9 = call i32 @hash_algo_by_ptr(ptr noundef %8)
  %10 = load ptr, ptr %3, align 8, !tbaa !39
  %11 = getelementptr inbounds nuw %struct.object_id, ptr %10, i32 0, i32 1
  store i32 %9, ptr %11, align 4, !tbaa !77
  ret void
}

; Function Attrs: inlinehint nounwind uwtable
define internal i32 @const_error() #4 {
  ret i32 -1
}

; Function Attrs: inlinehint nounwind uwtable
define internal ptr @_(ptr noundef %0) #4 {
  %2 = alloca ptr, align 8
  %3 = alloca ptr, align 8
  store ptr %0, ptr %3, align 8, !tbaa !11
  %4 = load ptr, ptr %3, align 8, !tbaa !11
  %5 = load i8, ptr %4, align 1, !tbaa !30
  %6 = icmp ne i8 %5, 0
  br i1 %6, label %8, label %7

7:                                                ; preds = %1
  store ptr @.str.33, ptr %2, align 8
  br label %16

8:                                                ; preds = %1
  %9 = load i32, ptr @git_gettext_enabled, align 4, !tbaa !4
  %10 = icmp ne i32 %9, 0
  br i1 %10, label %13, label %11

11:                                               ; preds = %8
  %12 = load ptr, ptr %3, align 8, !tbaa !11
  store ptr %12, ptr %2, align 8
  br label %16

13:                                               ; preds = %8
  %14 = load ptr, ptr %3, align 8, !tbaa !11
  %15 = call ptr @dcgettext(ptr noundef null, ptr noundef %14, i32 noundef 5) #10
  store ptr %15, ptr %2, align 8
  br label %16

16:                                               ; preds = %13, %11, %7
  %17 = load ptr, ptr %2, align 8
  ret ptr %17
}

; Function Attrs: inlinehint nounwind uwtable
define internal void @strbuf_setlen(ptr noundef %0, i64 noundef %1) #4 {
  %3 = alloca ptr, align 8
  %4 = alloca i64, align 8
  store ptr %0, ptr %3, align 8, !tbaa !53
  store i64 %1, ptr %4, align 8, !tbaa !35
  %5 = load i64, ptr %4, align 8, !tbaa !35
  %6 = load ptr, ptr %3, align 8, !tbaa !53
  %7 = getelementptr inbounds nuw %struct.strbuf, ptr %6, i32 0, i32 0
  %8 = load i64, ptr %7, align 8, !tbaa !55
  %9 = icmp ne i64 %8, 0
  br i1 %9, label %10, label %15

10:                                               ; preds = %2
  %11 = load ptr, ptr %3, align 8, !tbaa !53
  %12 = getelementptr inbounds nuw %struct.strbuf, ptr %11, i32 0, i32 0
  %13 = load i64, ptr %12, align 8, !tbaa !55
  %14 = sub i64 %13, 1
  br label %16

15:                                               ; preds = %2
  br label %16

16:                                               ; preds = %15, %10
  %17 = phi i64 [ %14, %10 ], [ 0, %15 ]
  %18 = icmp ugt i64 %5, %17
  br i1 %18, label %19, label %20

19:                                               ; preds = %16
  call void (ptr, i32, ptr, ...) @BUG_fl(ptr noundef @.str.36, i32 noundef 167, ptr noundef @.str.37) #11
  unreachable

20:                                               ; preds = %16
  %21 = load i64, ptr %4, align 8, !tbaa !35
  %22 = load ptr, ptr %3, align 8, !tbaa !53
  %23 = getelementptr inbounds nuw %struct.strbuf, ptr %22, i32 0, i32 1
  store i64 %21, ptr %23, align 8, !tbaa !33
  %24 = load ptr, ptr %3, align 8, !tbaa !53
  %25 = getelementptr inbounds nuw %struct.strbuf, ptr %24, i32 0, i32 2
  %26 = load ptr, ptr %25, align 8, !tbaa !36
  %27 = icmp ne ptr %26, @strbuf_slopbuf
  br i1 %27, label %28, label %34

28:                                               ; preds = %20
  %29 = load ptr, ptr %3, align 8, !tbaa !53
  %30 = getelementptr inbounds nuw %struct.strbuf, ptr %29, i32 0, i32 2
  %31 = load ptr, ptr %30, align 8, !tbaa !36
  %32 = load i64, ptr %4, align 8, !tbaa !35
  %33 = getelementptr inbounds nuw i8, ptr %31, i64 %32
  store i8 0, ptr %33, align 1, !tbaa !30
  br label %35

34:                                               ; preds = %20
  br label %35

35:                                               ; preds = %34, %28
  ret void
}

; Function Attrs: nounwind uwtable
define internal i32 @check_ref_valid(ptr noundef %0, ptr noundef %1, ptr noundef %2, i32 noundef %3) #0 {
  %5 = alloca i32, align 4
  %6 = alloca ptr, align 8
  %7 = alloca ptr, align 8
  %8 = alloca ptr, align 8
  %9 = alloca i32, align 4
  %10 = alloca ptr, align 8
  %11 = alloca i32, align 4
  store ptr %0, ptr %6, align 8, !tbaa !39
  store ptr %1, ptr %7, align 8, !tbaa !39
  store ptr %2, ptr %8, align 8, !tbaa !53
  store i32 %3, ptr %9, align 4, !tbaa !4
  call void @llvm.lifetime.start.p0(i64 8, ptr %10) #10
  %12 = load ptr, ptr getelementptr inbounds ([9 x %struct.ref_namespace_info], ptr @ref_namespace, i64 0, i64 5), align 16, !tbaa !31
  store ptr %12, ptr %10, align 8, !tbaa !11
  %13 = load ptr, ptr %8, align 8, !tbaa !53
  call void @strbuf_setlen(ptr noundef %13, i64 noundef 0)
  %14 = load ptr, ptr %8, align 8, !tbaa !53
  %15 = load ptr, ptr %10, align 8, !tbaa !11
  %16 = load ptr, ptr %6, align 8, !tbaa !39
  %17 = call ptr @oid_to_hex(ptr noundef %16)
  call void (ptr, ptr, ...) @strbuf_addf(ptr noundef %14, ptr noundef @.str.41, ptr noundef %15, ptr noundef %17)
  %18 = load ptr, ptr %8, align 8, !tbaa !53
  %19 = getelementptr inbounds nuw %struct.strbuf, ptr %18, i32 0, i32 2
  %20 = load ptr, ptr %19, align 8, !tbaa !36
  %21 = call i32 @check_refname_format(ptr noundef %20, i32 noundef 0)
  %22 = icmp ne i32 %21, 0
  br i1 %22, label %23, label %30

23:                                               ; preds = %4
  %24 = call ptr @_(ptr noundef @.str.42)
  %25 = load ptr, ptr %8, align 8, !tbaa !53
  %26 = getelementptr inbounds nuw %struct.strbuf, ptr %25, i32 0, i32 2
  %27 = load ptr, ptr %26, align 8, !tbaa !36
  %28 = call i32 (ptr, ...) @error(ptr noundef %24, ptr noundef %27)
  %29 = call i32 @const_error()
  store i32 %29, ptr %5, align 4
  store i32 1, ptr %11, align 4
  br label %56

30:                                               ; preds = %4
  %31 = load ptr, ptr @the_repository, align 8, !tbaa !13
  %32 = call ptr @get_main_ref_store(ptr noundef %31)
  %33 = load ptr, ptr %8, align 8, !tbaa !53
  %34 = getelementptr inbounds nuw %struct.strbuf, ptr %33, i32 0, i32 2
  %35 = load ptr, ptr %34, align 8, !tbaa !36
  %36 = load ptr, ptr %7, align 8, !tbaa !39
  %37 = call i32 @refs_read_ref(ptr noundef %32, ptr noundef %35, ptr noundef %36)
  %38 = icmp ne i32 %37, 0
  br i1 %38, label %39, label %44

39:                                               ; preds = %30
  %40 = load ptr, ptr %7, align 8, !tbaa !39
  %41 = load ptr, ptr @the_repository, align 8, !tbaa !13
  %42 = getelementptr inbounds nuw %struct.repository, ptr %41, i32 0, i32 17
  %43 = load ptr, ptr %42, align 8, !tbaa !58
  call void @oidclr(ptr noundef %40, ptr noundef %43)
  br label %55

44:                                               ; preds = %30
  %45 = load i32, ptr %9, align 4, !tbaa !4
  %46 = icmp ne i32 %45, 0
  br i1 %46, label %54, label %47

47:                                               ; preds = %44
  %48 = call ptr @_(ptr noundef @.str.43)
  %49 = load ptr, ptr %8, align 8, !tbaa !53
  %50 = getelementptr inbounds nuw %struct.strbuf, ptr %49, i32 0, i32 2
  %51 = load ptr, ptr %50, align 8, !tbaa !36
  %52 = call i32 (ptr, ...) @error(ptr noundef %48, ptr noundef %51)
  %53 = call i32 @const_error()
  store i32 %53, ptr %5, align 4
  store i32 1, ptr %11, align 4
  br label %56

54:                                               ; preds = %44
  br label %55

55:                                               ; preds = %54, %39
  store i32 0, ptr %5, align 4
  store i32 1, ptr %11, align 4
  br label %56

56:                                               ; preds = %55, %47, %23
  call void @llvm.lifetime.end.p0(i64 8, ptr %10) #10
  %57 = load i32, ptr %5, align 4
  ret i32 %57
}