; Function Attrs: nounwind uwtable
define internal fastcc range(i32 -1, 1) i32 @check_ref_valid(ptr noundef nonnull %0, ptr noundef nonnull %1, ptr noundef nonnull initializes((8, 16)) %2, i32 noundef %3) unnamed_addr #0 {
  %5 = load ptr, ptr getelementptr inbounds nuw (i8, ptr @ref_namespace, i64 80), align 16, !tbaa !24
  %6 = getelementptr inbounds nuw i8, ptr %2, i64 8
  store i64 0, ptr %6, align 8, !tbaa !26
  %7 = getelementptr inbounds nuw i8, ptr %2, i64 16
  %8 = load ptr, ptr %7, align 8, !tbaa !29
  %.not9.i = icmp eq ptr %8, @strbuf_slopbuf
  br i1 %.not9.i, label %strbuf_setlen.exit, label %9

9:                                                ; preds = %4
  store i8 0, ptr %8, align 1, !tbaa !30
  br label %strbuf_setlen.exit

strbuf_setlen.exit:                               ; preds = %4, %9
  %10 = tail call ptr @oid_to_hex(ptr noundef nonnull %0) #16
  tail call void (ptr, ptr, ...) @strbuf_addf(ptr noundef nonnull %2, ptr noundef nonnull @.str.41, ptr noundef %5, ptr noundef %10) #16
  %11 = load ptr, ptr %7, align 8, !tbaa !29
  %12 = tail call i32 @check_refname_format(ptr noundef %11, i32 noundef 0) #16
  %.not = icmp eq i32 %12, 0
  br i1 %.not, label %19, label %13

13:                                               ; preds = %strbuf_setlen.exit
  %14 = load i32, ptr @git_gettext_enabled, align 4, !tbaa !4
  %.not4.i = icmp eq i32 %14, 0
  br i1 %.not4.i, label %_.exit, label %15

15:                                               ; preds = %13
  %16 = tail call ptr @dcgettext(ptr noundef null, ptr noundef nonnull @.str.42, i32 noundef 5) #16
  br label %_.exit

_.exit:                                           ; preds = %13, %15
  %.0.i = phi ptr [ %16, %15 ], [ @.str.42, %13 ]
  %17 = load ptr, ptr %7, align 8, !tbaa !29
  %18 = tail call i32 (ptr, ...) @error(ptr noundef %.0.i, ptr noundef %17) #16
  br label %41

19:                                               ; preds = %strbuf_setlen.exit
  %20 = load ptr, ptr @the_repository, align 8, !tbaa !22
  %21 = tail call ptr @get_main_ref_store(ptr noundef %20) #16
  %22 = load ptr, ptr %7, align 8, !tbaa !29
  %23 = tail call i32 @refs_read_ref(ptr noundef %21, ptr noundef %22, ptr noundef nonnull %1) #16
  %.not11 = icmp eq i32 %23, 0
  br i1 %.not11, label %34, label %24

24:                                               ; preds = %19
  %25 = load ptr, ptr @the_repository, align 8, !tbaa !22
  %26 = getelementptr inbounds nuw i8, ptr %25, i64 400
  %27 = load ptr, ptr %26, align 8, !tbaa !38
  tail call void @llvm.memset.p0.i64(ptr noundef nonnull align 4 dereferenceable(32) %1, i8 0, i64 32, i1 false)
  br label %28

28:                                               ; preds = %30, %24
  %.0811.i.i = phi i64 [ 0, %24 ], [ %31, %30 ]
  %29 = getelementptr inbounds nuw [3 x %struct.git_hash_algo], ptr @hash_algos, i64 0, i64 %.0811.i.i
  %.not.i.i = icmp eq ptr %27, %29
  br i1 %.not.i.i, label %.split.loop.exit9.i.i, label %30

30:                                               ; preds = %28
  %31 = add nuw nsw i64 %.0811.i.i, 1
  %exitcond.not.i.i = icmp eq i64 %31, 3
  br i1 %exitcond.not.i.i, label %oidclr.exit, label %28, !llvm.loop !73

.split.loop.exit9.i.i:                            ; preds = %28
  %32 = trunc nuw nsw i64 %.0811.i.i to i32
  br label %oidclr.exit

oidclr.exit:                                      ; preds = %30, %.split.loop.exit9.i.i
  %.2.i.i = phi i32 [ %32, %.split.loop.exit9.i.i ], [ 0, %30 ]
  %33 = getelementptr inbounds nuw i8, ptr %1, i64 32
  store i32 %.2.i.i, ptr %33, align 4, !tbaa !74
  br label %41

34:                                               ; preds = %19
  %.not12 = icmp eq i32 %3, 0
  br i1 %.not12, label %35, label %41

35:                                               ; preds = %34
  %36 = load i32, ptr @git_gettext_enabled, align 4, !tbaa !4
  %.not4.i13 = icmp eq i32 %36, 0
  br i1 %.not4.i13, label %_.exit15, label %37

37:                                               ; preds = %35
  %38 = tail call ptr @dcgettext(ptr noundef null, ptr noundef nonnull @.str.43, i32 noundef 5) #16
  br label %_.exit15

_.exit15:                                         ; preds = %35, %37
  %.0.i14 = phi ptr [ %38, %37 ], [ @.str.43, %35 ]
  %39 = load ptr, ptr %7, align 8, !tbaa !29
  %40 = tail call i32 (ptr, ...) @error(ptr noundef %.0.i14, ptr noundef %39) #16
  br label %41

41:                                               ; preds = %oidclr.exit, %34, %_.exit15, %_.exit
  %.0 = phi i32 [ -1, %_.exit ], [ -1, %_.exit15 ], [ 0, %34 ], [ 0, %oidclr.exit ]
  ret i32 %.0
}